Certificate:
    Data:
        Version: 3 (0x2)
        Serial Number:
            f2:19:4b:c3:e4:56:85:0b:52:02:36:52:d4:89:27:0e
        Signature Algorithm: sha256WithRSAEncryption
        Issuer: CN=obdrizal
        Validity
            Not Before: May 22 09:59:23 2025 GMT
            Not After : Aug 25 09:59:23 2027 GMT
        Subject: CN=mqtt.iot-db.geryx.space
        Subject Public Key Info:
            Public Key Algorithm: rsaEncryption
                Public-Key: (2048 bit)
                Modulus:
                    00:b3:63:a8:b1:ca:cb:54:34:9d:81:07:94:6e:9d:
                    9f:58:bb:09:ec:5b:4c:6e:18:ec:ad:80:4b:02:d1:
                    4d:a7:c8:0b:4e:cd:c9:84:26:21:3a:d2:41:5d:5b:
                    a9:b3:b5:0e:5f:bf:e8:9e:ae:20:40:38:e0:3b:f6:
                    a8:c5:5b:f9:c4:14:b2:ff:57:bc:7b:fa:1e:42:99:
                    4d:29:f0:33:e1:de:86:cf:08:3e:c8:c7:9d:51:4a:
                    76:83:38:9f:f2:a0:f5:19:0d:15:29:9b:2f:3f:0c:
                    0f:03:ee:29:2a:56:8a:82:75:de:91:7a:05:1d:e2:
                    6e:51:a5:66:4c:54:3e:63:d9:13:fa:06:26:e9:82:
                    69:3f:90:b9:9e:f2:fb:4d:55:e2:a5:ea:e5:fd:ce:
                    e4:53:bb:ce:a4:9a:ac:1b:a5:e8:37:59:a8:c4:9c:
                    9a:15:7e:25:8b:6e:ac:b4:d3:56:ba:3f:c4:48:01:
                    91:1b:f1:75:fa:0c:12:55:82:ab:01:cb:2b:63:76:
                    f7:59:94:24:3f:dd:b1:30:94:df:31:e9:b1:f2:d2:
                    58:ec:35:8d:8f:37:47:24:c1:bd:d0:71:b8:75:82:
                    74:0e:91:3b:43:26:00:57:de:2c:df:8c:43:31:d1:
                    18:6a:92:51:09:38:a2:75:7c:a2:2f:f1:16:1f:45:
                    aa:c9
                Exponent: 65537 (0x10001)
        X509v3 extensions:
            X509v3 Basic Constraints: 
                CA:FALSE
            X509v3 Subject Key Identifier: 
                FC:9D:17:84:A9:01:89:DE:28:38:E9:3D:9D:45:EE:D3:25:37:66:1E
            X509v3 Authority Key Identifier: 
                keyid:B0:56:66:BC:5F:B7:6A:50:2C:D9:B0:2C:13:90:48:81:61:91:B0:0A
                DirName:/CN=obdrizal
                serial:74:94:2C:30:3A:8C:B7:57:F2:17:20:D2:7F:03:BC:3B:B5:A1:B6:64
            X509v3 Extended Key Usage: 
                TLS Web Server Authentication
            X509v3 Key Usage: 
                Digital Signature, Key Encipherment
    Signature Algorithm: sha256WithRSAEncryption
    Signature Value:
        00:50:d6:a3:66:e7:8c:4e:46:40:29:a4:09:17:2b:87:05:1e:
        de:09:08:9f:c2:03:14:85:d9:e8:56:58:68:71:96:72:09:84:
        41:20:e7:5d:57:58:8f:4e:d8:4d:76:ec:dd:8c:54:f4:71:2b:
        eb:e0:18:20:c3:9e:c5:6c:4a:9e:37:43:8a:6b:c0:96:23:15:
        31:db:55:78:60:75:e5:91:4a:a4:6d:c3:35:7e:36:d1:83:92:
        83:39:36:40:0e:cb:c7:fd:28:6a:d4:2b:99:b7:33:a4:39:da:
        60:8c:8b:03:ee:c8:bc:15:76:6d:f1:10:a8:75:a9:bd:5d:b2:
        3c:0d:81:f9:71:15:a9:53:31:7d:3a:92:1e:ce:33:95:e8:46:
        92:d6:31:40:dd:c4:9f:0f:f3:77:5d:c6:8a:f8:d8:41:2b:94:
        68:b2:c1:bf:0c:0d:97:df:1e:12:65:c6:43:ff:94:ee:5c:2b:
        7d:53:cc:d9:3b:bf:84:ed:bf:8b:02:11:61:e3:40:03:f6:71:
        51:a7:1d:4a:2f:d8:fd:bb:64:41:81:ab:49:14:51:f1:8a:5b:
        c0:2c:9b:2f:6e:1c:83:7b:b9:d8:3e:8e:5b:16:64:06:81:40:
        ec:6c:fe:14:64:06:ba:61:1d:db:0a:95:3e:92:cf:17:0c:76:
        51:3e:71:39
-----BEGIN CERTIFICATE-----
MIIDYDCCAkigAwIBAgIRAPIZS8PkVoULUgI2UtSJJw4wDQYJKoZIhvcNAQELBQAw
EzERMA8GA1UEAwwIb2Jkcml6YWwwHhcNMjUwNTIyMDk1OTIzWhcNMjcwODI1MDk1
OTIzWjAiMSAwHgYDVQQDDBdtcXR0LmlvdC1kYi5nZXJ5eC5zcGFjZTCCASIwDQYJ
KoZIhvcNAQEBBQADggEPADCCAQoCggEBALNjqLHKy1Q0nYEHlG6dn1i7CexbTG4Y
7K2ASwLRTafIC07NyYQmITrSQV1bqbO1Dl+/6J6uIEA44Dv2qMVb+cQUsv9XvHv6
HkKZTSnwM+Hehs8IPsjHnVFKdoM4n/Kg9RkNFSmbLz8MDwPuKSpWioJ13pF6BR3i
blGlZkxUPmPZE/oGJumCaT+QuZ7y+01V4qXq5f3O5FO7zqSarBul6DdZqMScmhV+
JYturLTTVro/xEgBkRvxdfoMElWCqwHLK2N291mUJD/dsTCU3zHpsfLSWOw1jY83
RyTBvdBxuHWCdA6RO0MmAFfeLN+MQzHRGGqSUQk4onV8oi/xFh9FqskCAwEAAaOB
nzCBnDAJBgNVHRMEAjAAMB0GA1UdDgQWBBT8nReEqQGJ3ig46T2dRe7TJTdmHjBO
BgNVHSMERzBFgBSwVma8X7dqUCzZsCwTkEiBYZGwCqEXpBUwEzERMA8GA1UEAwwI
b2Jkcml6YWyCFHSULDA6jLdX8hcg0n8DvDu1obZkMBMGA1UdJQQMMAoGCCsGAQUF
BwMBMAsGA1UdDwQEAwIFoDANBgkqhkiG9w0BAQsFAAOCAQEAAFDWo2bnjE5GQCmk
CRcrhwUe3gkIn8IDFIXZ6FZYaHGWcgmEQSDnXVdYj07YTXbs3YxU9HEr6+AYIMOe
xWxKnjdDimvAliMVMdtVeGB15ZFKpG3DNX420YOSgzk2QA7Lx/0oatQrmbczpDna
YIyLA+7IvBV2bfEQqHWpvV2yPA2B+XEVqVMxfTqSHs4zlehGktYxQN3Enw/zd13G
ivjYQSuUaLLBvwwNl98eEmXGQ/+U7lwrfVPM2Tu/hO2/iwIRYeNAA/ZxUacdSi/Y
/btkQYGrSRRR8YpbwCybL24cg3u52D6OWxZkBoFA7Gz+FGQGumEd2wqVPpLPFwx2
UT5xOQ==
-----END CERTIFICATE-----
